target datalayout = "e-m:e-p270:32:32-p271:32:32-p272:64:64-i64:64-i128:128-f80:128-n8:16:32:64-S128"
target triple = "x86_64-pc-linux-gnu"

%"struct.std::_Vector_base" = type { %"struct.std::_Vector_base<unsigned char, std::allocator<unsigned char>>::_Vector_impl" }
%"struct.std::_Vector_base<unsigned char, std::allocator<unsigned char>>::_Vector_impl" = type { %"struct.std::_Vector_base<unsigned char, std::allocator<unsigned char>>::_Vector_impl_data" }
%"struct.std::_Vector_base<unsigned char, std::allocator<unsigned char>>::_Vector_impl_data" = type { ptr, ptr, ptr }
%"class.ZXing::DataMatrix::SymbolInfo" = type { i8, i32, i32, i32, i32, i32, i32, i32 }
%"class.__gnu_cxx::__normal_iterator" = type { ptr }

@.str = private unnamed_addr constant [59 x i8] c"The number of codewords does not match the selected symbol\00", align 1
@_ZTISt16invalid_argument = external constant ptr

; Function Attrs: mustprogress nounwind uwtable
define linkonce_odr void @_ZNSt12_Destroy_auxILb1EE9__destroyIPhEEvT_S3_(ptr noundef %0, ptr noundef %1) #3 comdat align 2 {
  %3 = alloca ptr, align 8
  %4 = alloca ptr, align 8
  store ptr %0, ptr %3, align 8
  store ptr %1, ptr %4, align 8
  ret void
}

; Function Attrs: mustprogress uwtable
define linkonce_odr void @_ZSt8_DestroyIPhEvT_S1_(ptr noundef %0, ptr noundef %1) #1 comdat {
  %3 = alloca ptr, align 8
  %4 = alloca ptr, align 8
  store ptr %0, ptr %3, align 8
  store ptr %1, ptr %4, align 8
  %5 = load ptr, ptr %3, align 8
  %6 = load ptr, ptr %4, align 8
  call void @_ZNSt12_Destroy_auxILb1EE9__destroyIPhEEvT_S3_(ptr noundef %5, ptr noundef %6)
  ret void
}

; Function Attrs: noreturn nounwind uwtable
define linkonce_odr hidden void @__clang_call_terminate(ptr noundef %0) #9 comdat {
  %2 = call ptr @__cxa_begin_catch(ptr %0) #4
  call void @_ZSt9terminatev() #14
  unreachable
}

; Function Attrs: mustprogress uwtable
define linkonce_odr void @_ZSt8_DestroyIPhhEvT_S1_RSaIT0_E(ptr noundef %0, ptr noundef %1, ptr noundef nonnull align 1 dereferenceable(1) %2) #1 comdat {
  %4 = alloca ptr, align 8
  %5 = alloca ptr, align 8
  %6 = alloca ptr, align 8
  store ptr %0, ptr %4, align 8
  store ptr %1, ptr %5, align 8
  store ptr %2, ptr %6, align 8
  %7 = load ptr, ptr %4, align 8
  %8 = load ptr, ptr %5, align 8
  call void @_ZSt8_DestroyIPhEvT_S1_(ptr noundef %7, ptr noundef %8)
  ret void
}

; Function Attrs: mustprogress nounwind uwtable
define linkonce_odr noundef nonnull align 1 dereferenceable(1) ptr @_ZNSt12_Vector_baseIhSaIhEE19_M_get_Tp_allocatorEv(ptr noundef nonnull align 8 dereferenceable(24) %0) #3 comdat align 2 {
  %2 = alloca ptr, align 8
  store ptr %0, ptr %2, align 8
  %3 = load ptr, ptr %2, align 8
  %4 = getelementptr inbounds %"struct.std::_Vector_base", ptr %3, i32 0, i32 0
  ret ptr %4
}

; Function Attrs: mustprogress nounwind uwtable
define linkonce_odr void @_ZN9__gnu_cxx17__normal_iteratorIPhSt6vectorIhSaIhEEEC2ERKS1_(ptr noundef nonnull align 8 dereferenceable(8) %0, ptr noundef nonnull align 8 dereferenceable(8) %1) unnamed_addr #3 comdat align 2 {
  %3 = alloca ptr, align 8
  %4 = alloca ptr, align 8
  store ptr %0, ptr %3, align 8
  store ptr %1, ptr %4, align 8
  %5 = load ptr, ptr %3, align 8
  %6 = getelementptr inbounds %"class.__gnu_cxx::__normal_iterator", ptr %5, i32 0, i32 0
  %7 = load ptr, ptr %4, align 8
  %8 = load ptr, ptr %7, align 8
  store ptr %8, ptr %6, align 8
  ret void
}

; Function Attrs: mustprogress nounwind uwtable
define linkonce_odr void @_ZNSt6vectorIhSaIhEE15_M_erase_at_endEPh(ptr noundef nonnull align 8 dereferenceable(24) %0, ptr noundef %1) #3 comdat align 2 personality ptr @__gxx_personality_v0 {
  %3 = alloca ptr, align 8
  %4 = alloca ptr, align 8
  %5 = alloca i64, align 8
  store ptr %0, ptr %3, align 8
  store ptr %1, ptr %4, align 8
  %6 = load ptr, ptr %3, align 8
  %7 = getelementptr inbounds %"struct.std::_Vector_base", ptr %6, i32 0, i32 0
  %8 = getelementptr inbounds %"struct.std::_Vector_base<unsigned char, std::allocator<unsigned char>>::_Vector_impl_data", ptr %7, i32 0, i32 1
  %9 = load ptr, ptr %8, align 8
  %10 = load ptr, ptr %4, align 8
  %11 = ptrtoint ptr %9 to i64
  %12 = ptrtoint ptr %10 to i64
  %13 = sub i64 %11, %12
  store i64 %13, ptr %5, align 8
  %14 = load i64, ptr %5, align 8
  %15 = icmp ne i64 %14, 0
  br i1 %15, label %16, label %26

16:                                               ; preds = %2
  %17 = load ptr, ptr %4, align 8
  %18 = getelementptr inbounds %"struct.std::_Vector_base", ptr %6, i32 0, i32 0
  %19 = getelementptr inbounds %"struct.std::_Vector_base<unsigned char, std::allocator<unsigned char>>::_Vector_impl_data", ptr %18, i32 0, i32 1
  %20 = load ptr, ptr %19, align 8
  %21 = call noundef nonnull align 1 dereferenceable(1) ptr @_ZNSt12_Vector_baseIhSaIhEE19_M_get_Tp_allocatorEv(ptr noundef nonnull align 8 dereferenceable(24) %6) #4
  invoke void @_ZSt8_DestroyIPhhEvT_S1_RSaIT0_E(ptr noundef %17, ptr noundef %20, ptr noundef nonnull align 1 dereferenceable(1) %21)
          to label %22 unwind label %27

22:                                               ; preds = %16
  %23 = load ptr, ptr %4, align 8
  %24 = getelementptr inbounds %"struct.std::_Vector_base", ptr %6, i32 0, i32 0
  %25 = getelementptr inbounds %"struct.std::_Vector_base<unsigned char, std::allocator<unsigned char>>::_Vector_impl_data", ptr %24, i32 0, i32 1
  store ptr %23, ptr %25, align 8
  br label %26

26:                                               ; preds = %22, %2
  ret void

27:                                               ; preds = %16
  %28 = landingpad { ptr, i32 }
          catch ptr null
  %29 = extractvalue { ptr, i32 } %28, 0
  call void @__clang_call_terminate(ptr %29) #14
  unreachable
}

; Function Attrs: mustprogress nounwind uwtable
define linkonce_odr ptr @_ZNSt6vectorIhSaIhEE3endEv(ptr noundef nonnull align 8 dereferenceable(24) %0) #3 comdat align 2 {
  %2 = alloca %"class.__gnu_cxx::__normal_iterator", align 8
  %3 = alloca ptr, align 8
  store ptr %0, ptr %3, align 8
  %4 = load ptr, ptr %3, align 8
  %5 = getelementptr inbounds %"struct.std::_Vector_base", ptr %4, i32 0, i32 0
  %6 = getelementptr inbounds %"struct.std::_Vector_base<unsigned char, std::allocator<unsigned char>>::_Vector_impl_data", ptr %5, i32 0, i32 1
  call void @_ZN9__gnu_cxx17__normal_iteratorIPhSt6vectorIhSaIhEEEC2ERKS1_(ptr noundef nonnull align 8 dereferenceable(8) %2, ptr noundef nonnull align 8 dereferenceable(8) %6) #4
  %7 = getelementptr inbounds %"class.__gnu_cxx::__normal_iterator", ptr %2, i32 0, i32 0
  %8 = load ptr, ptr %7, align 8
  ret ptr %8
}

; Function Attrs: mustprogress nounwind uwtable
define linkonce_odr noundef i32 @_ZNK5ZXing10DataMatrix10SymbolInfo30errorLengthForInterleavedBlockEv(ptr noundef nonnull align 4 dereferenceable(32) %0) #3 comdat align 2 {
  %2 = alloca ptr, align 8
  store ptr %0, ptr %2, align 8
  %3 = load ptr, ptr %2, align 8
  %4 = getelementptr inbounds %"class.ZXing::DataMatrix::SymbolInfo", ptr %3, i32 0, i32 7
  %5 = load i32, ptr %4, align 4
  ret i32 %5
}

; Function Attrs: mustprogress nounwind uwtable
define linkonce_odr noundef i32 @_ZNK5ZXing10DataMatrix10SymbolInfo29dataLengthForInterleavedBlockEi(ptr noundef nonnull align 4 dereferenceable(32) %0, i32 noundef %1) #3 comdat align 2 {
  %3 = alloca ptr, align 8
  %4 = alloca i32, align 4
  store ptr %0, ptr %3, align 8
  store i32 %1, ptr %4, align 4
  %5 = load ptr, ptr %3, align 8
  %6 = getelementptr inbounds %"class.ZXing::DataMatrix::SymbolInfo", ptr %5, i32 0, i32 6
  %7 = load i32, ptr %6, align 4
  %8 = icmp sgt i32 %7, 0
  br i1 %8, label %9, label %12

9:                                                ; preds = %2
  %10 = getelementptr inbounds %"class.ZXing::DataMatrix::SymbolInfo", ptr %5, i32 0, i32 6
  %11 = load i32, ptr %10, align 4
  br label %16

12:                                               ; preds = %2
  %13 = load i32, ptr %4, align 4
  %14 = icmp sle i32 %13, 8
  %15 = select i1 %14, i32 156, i32 155
  br label %16

16:                                               ; preds = %12, %9
  %17 = phi i32 [ %11, %9 ], [ %15, %12 ]
  ret i32 %17
}

; Function Attrs: mustprogress nounwind uwtable
define linkonce_odr noundef i32 @_ZNK5ZXing10DataMatrix10SymbolInfo14errorCodewordsEv(ptr noundef nonnull align 4 dereferenceable(32) %0) #3 comdat align 2 {
  %2 = alloca ptr, align 8
  store ptr %0, ptr %2, align 8
  %3 = load ptr, ptr %2, align 8
  %4 = getelementptr inbounds %"class.ZXing::DataMatrix::SymbolInfo", ptr %3, i32 0, i32 2
  %5 = load i32, ptr %4, align 4
  ret i32 %5
}

; Function Attrs: mustprogress nounwind uwtable
define linkonce_odr noundef i32 @_ZNK5ZXing10DataMatrix10SymbolInfo21interleavedBlockCountEv(ptr noundef nonnull align 4 dereferenceable(32) %0) #3 comdat align 2 {
  %2 = alloca ptr, align 8
  store ptr %0, ptr %2, align 8
  %3 = load ptr, ptr %2, align 8
  %4 = getelementptr inbounds %"class.ZXing::DataMatrix::SymbolInfo", ptr %3, i32 0, i32 6
  %5 = load i32, ptr %4, align 4
  %6 = icmp sgt i32 %5, 0
  br i1 %6, label %7, label %13

7:                                                ; preds = %1
  %8 = getelementptr inbounds %"class.ZXing::DataMatrix::SymbolInfo", ptr %3, i32 0, i32 1
  %9 = load i32, ptr %8, align 4
  %10 = getelementptr inbounds %"class.ZXing::DataMatrix::SymbolInfo", ptr %3, i32 0, i32 6
  %11 = load i32, ptr %10, align 4
  %12 = sdiv i32 %9, %11
  br label %14

13:                                               ; preds = %1
  br label %14

14:                                               ; preds = %13, %7
  %15 = phi i32 [ %12, %7 ], [ 10, %13 ]
  ret i32 %15
}

; Function Attrs: mustprogress uwtable
define linkonce_odr void @_ZNSt6vectorIhSaIhEE6resizeEmRKh(ptr noundef nonnull align 8 dereferenceable(24) %0, i64 noundef %1, ptr noundef nonnull align 1 dereferenceable(1) %2) #1 comdat align 2 {
  %4 = alloca ptr, align 8
  %5 = alloca i64, align 8
  %6 = alloca ptr, align 8
  %7 = alloca %"class.__gnu_cxx::__normal_iterator", align 8
  store ptr %0, ptr %4, align 8
  store i64 %1, ptr %5, align 8
  store ptr %2, ptr %6, align 8
  %8 = load ptr, ptr %4, align 8
  %9 = load i64, ptr %5, align 8
  %10 = call noundef i64 @_ZNKSt6vectorIhSaIhEE4sizeEv(ptr noundef nonnull align 8 dereferenceable(24) %8) #4
  %11 = icmp ugt i64 %9, %10
  br i1 %11, label %12, label %21

12:                                               ; preds = %3
  %13 = call ptr @_ZNSt6vectorIhSaIhEE3endEv(ptr noundef nonnull align 8 dereferenceable(24) %8) #4
  %14 = getelementptr inbounds %"class.__gnu_cxx::__normal_iterator", ptr %7, i32 0, i32 0
  store ptr %13, ptr %14, align 8
  %15 = load i64, ptr %5, align 8
  %16 = call noundef i64 @_ZNKSt6vectorIhSaIhEE4sizeEv(ptr noundef nonnull align 8 dereferenceable(24) %8) #4
  %17 = sub i64 %15, %16
  %18 = load ptr, ptr %6, align 8
  %19 = getelementptr inbounds %"class.__gnu_cxx::__normal_iterator", ptr %7, i32 0, i32 0
  %20 = load ptr, ptr %19, align 8
  call void @_ZNSt6vectorIhSaIhEE14_M_fill_insertEN9__gnu_cxx17__normal_iteratorIPhS1_EEmRKh(ptr noundef nonnull align 8 dereferenceable(24) %8, ptr %20, i64 noundef %17, ptr noundef nonnull align 1 dereferenceable(1) %18)
  br label %32

21:                                               ; preds = %3
  %22 = load i64, ptr %5, align 8
  %23 = call noundef i64 @_ZNKSt6vectorIhSaIhEE4sizeEv(ptr noundef nonnull align 8 dereferenceable(24) %8) #4
  %24 = icmp ult i64 %22, %23
  br i1 %24, label %25, label %31

25:                                               ; preds = %21
  %26 = getelementptr inbounds %"struct.std::_Vector_base", ptr %8, i32 0, i32 0
  %27 = getelementptr inbounds %"struct.std::_Vector_base<unsigned char, std::allocator<unsigned char>>::_Vector_impl_data", ptr %26, i32 0, i32 0
  %28 = load ptr, ptr %27, align 8
  %29 = load i64, ptr %5, align 8
  %30 = getelementptr inbounds i8, ptr %28, i64 %29
  call void @_ZNSt6vectorIhSaIhEE15_M_erase_at_endEPh(ptr noundef nonnull align 8 dereferenceable(24) %8, ptr noundef %30) #4
  br label %31

31:                                               ; preds = %25, %21
  br label %32

32:                                               ; preds = %31, %12
  ret void
}

; Function Attrs: mustprogress nounwind uwtable
define linkonce_odr noundef i32 @_ZNK5ZXing10DataMatrix10SymbolInfo13codewordCountEv(ptr noundef nonnull align 4 dereferenceable(32) %0) #3 comdat align 2 {
  %2 = alloca ptr, align 8
  store ptr %0, ptr %2, align 8
  %3 = load ptr, ptr %2, align 8
  %4 = getelementptr inbounds %"class.ZXing::DataMatrix::SymbolInfo", ptr %3, i32 0, i32 1
  %5 = load i32, ptr %4, align 4
  %6 = getelementptr inbounds %"class.ZXing::DataMatrix::SymbolInfo", ptr %3, i32 0, i32 2
  %7 = load i32, ptr %6, align 4
  %8 = add nsw i32 %5, %7
  ret i32 %8
}

; Function Attrs: mustprogress nounwind uwtable
define linkonce_odr noundef i32 @_ZNK5ZXing10DataMatrix10SymbolInfo12dataCapacityEv(ptr noundef nonnull align 4 dereferenceable(32) %0) #3 comdat align 2 {
  %2 = alloca ptr, align 8
  store ptr %0, ptr %2, align 8
  %3 = load ptr, ptr %2, align 8
  %4 = getelementptr inbounds %"class.ZXing::DataMatrix::SymbolInfo", ptr %3, i32 0, i32 1
  %5 = load i32, ptr %4, align 4
  ret i32 %5
}

; Function Attrs: mustprogress nounwind uwtable
define linkonce_odr noundef i64 @_ZNKSt6vectorIhSaIhEE4sizeEv(ptr noundef nonnull align 8 dereferenceable(24) %0) #3 comdat align 2 {
  %2 = alloca ptr, align 8
  store ptr %0, ptr %2, align 8
  %3 = load ptr, ptr %2, align 8
  %4 = getelementptr inbounds %"struct.std::_Vector_base", ptr %3, i32 0, i32 0
  %5 = getelementptr inbounds %"struct.std::_Vector_base<unsigned char, std::allocator<unsigned char>>::_Vector_impl_data", ptr %4, i32 0, i32 1
  %6 = load ptr, ptr %5, align 8
  %7 = getelementptr inbounds %"struct.std::_Vector_base", ptr %3, i32 0, i32 0
  %8 = getelementptr inbounds %"struct.std::_Vector_base<unsigned char, std::allocator<unsigned char>>::_Vector_impl_data", ptr %7, i32 0, i32 0
  %9 = load ptr, ptr %8, align 8
  %10 = ptrtoint ptr %6 to i64
  %11 = ptrtoint ptr %9 to i64
  %12 = sub i64 %10, %11
  ret i64 %12
}

; Function Attrs: mustprogress uwtable
define void @_ZN5ZXing10DataMatrix12EncodeECC200ERNS_9ByteArrayERKNS0_10SymbolInfoE(ptr noundef nonnull align 8 dereferenceable(24) %0, ptr noundef nonnull align 4 dereferenceable(32) %1) #1 personality ptr @__gxx_personality_v0 {
  %3 = alloca ptr, align 8
  %4 = alloca ptr, align 8
  %5 = alloca ptr, align 8
  %6 = alloca i32, align 4
  %7 = alloca i8, align 1
  %8 = alloca i32, align 4
  %9 = alloca i32, align 4
  store ptr %0, ptr %3, align 8
  store ptr %1, ptr %4, align 8
  %10 = load ptr, ptr %3, align 8
  %11 = call noundef i64 @_ZNKSt6vectorIhSaIhEE4sizeEv(ptr noundef nonnull align 8 dereferenceable(24) %10) #4
  %12 = load ptr, ptr %4, align 8
  %13 = call noundef i32 @_ZNK5ZXing10DataMatrix10SymbolInfo12dataCapacityEv(ptr noundef nonnull align 4 dereferenceable(32) %12)
  %14 = sext i32 %13 to i64
  %15 = icmp ne i64 %11, %14
  br i1 %15, label %16, label %23

16:                                               ; preds = %2
  %17 = call ptr @__cxa_allocate_exception(i64 16) #4
  invoke void @_ZNSt16invalid_argumentC1EPKc(ptr noundef nonnull align 8 dereferenceable(16) %17, ptr noundef @.str)
          to label %18 unwind label %19

18:                                               ; preds = %16
  call void @__cxa_throw(ptr %17, ptr @_ZTISt16invalid_argument, ptr @_ZNSt16invalid_argumentD1Ev) #13
  unreachable

19:                                               ; preds = %16
  %20 = landingpad { ptr, i32 }
          cleanup
  %21 = extractvalue { ptr, i32 } %20, 0
  store ptr %21, ptr %5, align 8
  %22 = extractvalue { ptr, i32 } %20, 1
  store i32 %22, ptr %6, align 4
  call void @__cxa_free_exception(ptr %17) #4
  br label %64

23:                                               ; preds = %2
  %24 = load ptr, ptr %3, align 8
  %25 = load ptr, ptr %4, align 8
  %26 = call noundef i32 @_ZNK5ZXing10DataMatrix10SymbolInfo13codewordCountEv(ptr noundef nonnull align 4 dereferenceable(32) %25)
  %27 = sext i32 %26 to i64
  store i8 0, ptr %7, align 1
  call void @_ZNSt6vectorIhSaIhEE6resizeEmRKh(ptr noundef nonnull align 8 dereferenceable(24) %24, i64 noundef %27, ptr noundef nonnull align 1 dereferenceable(1) %7)
  %28 = load ptr, ptr %4, align 8
  %29 = call noundef i32 @_ZNK5ZXing10DataMatrix10SymbolInfo21interleavedBlockCountEv(ptr noundef nonnull align 4 dereferenceable(32) %28)
  store i32 %29, ptr %8, align 4
  %30 = load i32, ptr %8, align 4
  %31 = icmp eq i32 %30, 1
  br i1 %31, label %32, label %40

32:                                               ; preds = %23
  %33 = load ptr, ptr %3, align 8
  %34 = load ptr, ptr %4, align 8
  %35 = call noundef i32 @_ZNK5ZXing10DataMatrix10SymbolInfo12dataCapacityEv(ptr noundef nonnull align 4 dereferenceable(32) %34)
  %36 = load ptr, ptr %4, align 8
  %37 = call noundef i32 @_ZNK5ZXing10DataMatrix10SymbolInfo12dataCapacityEv(ptr noundef nonnull align 4 dereferenceable(32) %36)
  %38 = load ptr, ptr %4, align 8
  %39 = call noundef i32 @_ZNK5ZXing10DataMatrix10SymbolInfo14errorCodewordsEv(ptr noundef nonnull align 4 dereferenceable(32) %38)
  call void @_ZN5ZXing10DataMatrixL14CreateECCBlockERNS_9ByteArrayEiiiii(ptr noundef nonnull align 8 dereferenceable(24) %33, i32 noundef 0, i32 noundef %35, i32 noundef %37, i32 noundef %39, i32 noundef 1)
  br label %63

40:                                               ; preds = %23
  store i32 0, ptr %9, align 4
  br label %41

41:                                               ; preds = %59, %40
  %42 = load i32, ptr %9, align 4
  %43 = load i32, ptr %8, align 4
  %44 = icmp slt i32 %42, %43
  br i1 %44, label %45, label %62

45:                                               ; preds = %41
  %46 = load ptr, ptr %3, align 8
  %47 = load i32, ptr %9, align 4
  %48 = load ptr, ptr %4, align 8
  %49 = load i32, ptr %9, align 4
  %50 = add nsw i32 %49, 1
  %51 = call noundef i32 @_ZNK5ZXing10DataMatrix10SymbolInfo29dataLengthForInterleavedBlockEi(ptr noundef nonnull align 4 dereferenceable(32) %48, i32 noundef %50)
  %52 = load ptr, ptr %4, align 8
  %53 = call noundef i32 @_ZNK5ZXing10DataMatrix10SymbolInfo12dataCapacityEv(ptr noundef nonnull align 4 dereferenceable(32) %52)
  %54 = load i32, ptr %9, align 4
  %55 = add nsw i32 %53, %54
  %56 = load ptr, ptr %4, align 8
  %57 = call noundef i32 @_ZNK5ZXing10DataMatrix10SymbolInfo30errorLengthForInterleavedBlockEv(ptr noundef nonnull align 4 dereferenceable(32) %56)
  %58 = load i32, ptr %8, align 4
  call void @_ZN5ZXing10DataMatrixL14CreateECCBlockERNS_9ByteArrayEiiiii(ptr noundef nonnull align 8 dereferenceable(24) %46, i32 noundef %47, i32 noundef %51, i32 noundef %55, i32 noundef %57, i32 noundef %58)
  br label %59

59:                                               ; preds = %45
  %60 = load i32, ptr %9, align 4
  %61 = add nsw i32 %60, 1
  store i32 %61, ptr %9, align 4
  br label %41, !llvm.loop !4

62:                                               ; preds = %41
  br label %63

63:                                               ; preds = %62, %32
  ret void

64:                                               ; preds = %19
  %65 = load ptr, ptr %5, align 8
  %66 = load i32, ptr %6, align 4
  %67 = insertvalue { ptr, i32 } poison, ptr %65, 0
  %68 = insertvalue { ptr, i32 } %67, i32 %66, 1
  resume { ptr, i32 } %68
}