; Function Attrs: mustprogress uwtable
define void @_ZN5ZXing10DataMatrix12EncodeECC200ERNS_9ByteArrayERKNS0_10SymbolInfoE(ptr noundef nonnull align 8 dereferenceable(24) %0, ptr nocapture noundef nonnull readonly align 4 dereferenceable(32) %1) local_unnamed_addr #3 personality ptr @__gxx_personality_v0 {
  %3 = alloca i8, align 1
  %4 = getelementptr inbounds i8, ptr %0, i64 8
  %5 = load ptr, ptr %4, align 8
  %6 = load ptr, ptr %0, align 8
  %7 = ptrtoint ptr %5 to i64
  %8 = ptrtoint ptr %6 to i64
  %9 = sub i64 %7, %8
  %10 = getelementptr inbounds i8, ptr %1, i64 4
  %11 = load i32, ptr %10, align 4
  %12 = sext i32 %11 to i64
  %.not = icmp eq i64 %9, %12
  br i1 %.not, label %18, label %13

13:                                               ; preds = %2
  %14 = tail call ptr @__cxa_allocate_exception(i64 16) #14
  invoke void @_ZNSt16invalid_argumentC1EPKc(ptr noundef nonnull align 8 dereferenceable(16) %14, ptr noundef nonnull @.str)
          to label %15 unwind label %16

15:                                               ; preds = %13
  tail call void @__cxa_throw(ptr nonnull %14, ptr nonnull @_ZTISt16invalid_argument, ptr nonnull @_ZNSt16invalid_argumentD1Ev) #15
  unreachable

16:                                               ; preds = %13
  %17 = landingpad { ptr, i32 }
          cleanup
  tail call void @__cxa_free_exception(ptr %14) #14
  resume { ptr, i32 } %17

18:                                               ; preds = %2
  %19 = getelementptr inbounds i8, ptr %1, i64 8
  %20 = load i32, ptr %19, align 4
  %21 = add nsw i32 %20, %11
  %22 = sext i32 %21 to i64
  store i8 0, ptr %3, align 1
  %23 = icmp ult i64 %9, %22
  br i1 %23, label %24, label %26

24:                                               ; preds = %18
  %25 = sub nsw i64 %22, %9
  call void @_ZNSt6vectorIhSaIhEE14_M_fill_insertEN9__gnu_cxx17__normal_iteratorIPhS1_EEmRKh(ptr noundef nonnull align 8 dereferenceable(24) %0, ptr %5, i64 noundef %25, ptr noundef nonnull align 1 dereferenceable(1) %3)
  br label %_ZNSt6vectorIhSaIhEE6resizeEmRKh.exit

26:                                               ; preds = %18
  %27 = icmp ugt i64 %9, %22
  br i1 %27, label %28, label %_ZNSt6vectorIhSaIhEE6resizeEmRKh.exit

28:                                               ; preds = %26
  %29 = getelementptr inbounds i8, ptr %6, i64 %22
  %.not.i.i = icmp eq ptr %5, %29
  br i1 %.not.i.i, label %_ZNSt6vectorIhSaIhEE6resizeEmRKh.exit, label %30

30:                                               ; preds = %28
  store ptr %29, ptr %4, align 8
  br label %_ZNSt6vectorIhSaIhEE6resizeEmRKh.exit

_ZNSt6vectorIhSaIhEE6resizeEmRKh.exit:            ; preds = %24, %26, %28, %30
  %31 = getelementptr inbounds i8, ptr %1, i64 24
  %32 = load i32, ptr %31, align 4
  %33 = icmp sgt i32 %32, 0
  br i1 %33, label %_ZNK5ZXing10DataMatrix10SymbolInfo21interleavedBlockCountEv.exit, label %.lr.ph

_ZNK5ZXing10DataMatrix10SymbolInfo21interleavedBlockCountEv.exit: ; preds = %_ZNSt6vectorIhSaIhEE6resizeEmRKh.exit
  %34 = load i32, ptr %10, align 4
  %35 = sdiv i32 %34, %32
  %36 = icmp eq i32 %35, 1
  br i1 %36, label %40, label %.preheader

.preheader:                                       ; preds = %_ZNK5ZXing10DataMatrix10SymbolInfo21interleavedBlockCountEv.exit
  %37 = icmp sgt i32 %35, 0
  br i1 %37, label %.lr.ph, label %.loopexit

.lr.ph:                                           ; preds = %_ZNSt6vectorIhSaIhEE6resizeEmRKh.exit, %.preheader
  %38 = phi i32 [ %35, %.preheader ], [ 10, %_ZNSt6vectorIhSaIhEE6resizeEmRKh.exit ]
  %39 = getelementptr inbounds i8, ptr %1, i64 28
  br label %43

40:                                               ; preds = %_ZNK5ZXing10DataMatrix10SymbolInfo21interleavedBlockCountEv.exit
  %41 = load i32, ptr %10, align 4
  %42 = load i32, ptr %19, align 4
  call fastcc void @_ZN5ZXing10DataMatrixL14CreateECCBlockERNS_9ByteArrayEiiiii(ptr noundef nonnull align 8 dereferenceable(24) %0, i32 noundef 0, i32 noundef %41, i32 noundef %41, i32 noundef %42, i32 noundef 1)
  br label %.loopexit

43:                                               ; preds = %.lr.ph, %43
  %.023 = phi i32 [ 0, %.lr.ph ], [ %44, %43 ]
  %44 = add nuw nsw i32 %.023, 1
  %45 = load i32, ptr %31, align 4
  %46 = icmp sgt i32 %45, 0
  %47 = icmp ult i32 %.023, 8
  %48 = select i1 %47, i32 156, i32 155
  %49 = select i1 %46, i32 %45, i32 %48
  %50 = load i32, ptr %10, align 4
  %51 = add nsw i32 %50, %.023
  %52 = load i32, ptr %39, align 4
  call fastcc void @_ZN5ZXing10DataMatrixL14CreateECCBlockERNS_9ByteArrayEiiiii(ptr noundef nonnull align 8 dereferenceable(24) %0, i32 noundef %.023, i32 noundef %49, i32 noundef %51, i32 noundef %52, i32 noundef %38)
  %exitcond.not = icmp eq i32 %44, %38
  br i1 %exitcond.not, label %.loopexit, label %43, !llvm.loop !4

.loopexit:                                        ; preds = %43, %.preheader, %40
  ret void
}